target datalayout = "e-m:e-p270:32:32-p271:32:32-p272:64:64-i64:64-i128:128-f80:128-n8:16:32:64-S128"
target triple = "x86_64-pc-linux-gnu"

%struct.darktable_t = type { %struct.dt_codepath_t, i32, i32, ptr, ptr, ptr, ptr, ptr, ptr, ptr, ptr, ptr, ptr, ptr, ptr, ptr, ptr, ptr, ptr, ptr, ptr, ptr, ptr, ptr, ptr, ptr, ptr, ptr, ptr, ptr, [64 x %struct.dt_pthread_mutex_t], %struct.dt_pthread_mutex_t, %struct.dt_pthread_mutex_t, %struct.dt_pthread_mutex_t, %struct.dt_pthread_mutex_t, %struct.dt_pthread_mutex_t, ptr, ptr, ptr, ptr, ptr, ptr, ptr, ptr, ptr, ptr, ptr, ptr, ptr, %struct.dt_lua_state_t, ptr, double, ptr, i32, [47 x i32], i32, i32, ptr, ptr, %struct.dt_sys_resources_t, %struct.dt_backthumb_t, %struct.dt_gimp_t }
%struct.dt_codepath_t = type { i8, [3 x i8] }
%struct.dt_pthread_mutex_t = type { %union.pthread_mutex_t }
%union.pthread_mutex_t = type { %struct.__pthread_mutex_s }
%struct.__pthread_mutex_s = type { i32, i32, i32, i32, i32, i16, i16, %struct.__pthread_internal_list }
%struct.__pthread_internal_list = type { ptr, ptr }
%struct.dt_lua_state_t = type { i32 }
%struct.dt_sys_resources_t = type { i64, i64, ptr, ptr, i32 }
%struct.dt_backthumb_t = type { double, double, i32, i32, i32, i32 }
%struct.dt_gimp_t = type { i32, ptr, ptr, i32, i32 }

@darktable = external global %struct.darktable_t, align 8
@.str.2 = private unnamed_addr constant [41 x i8] c"[sql] %s:%d, function %s(): prepare \22%s\22\00", align 1
@.str.3 = private unnamed_addr constant [112 x i8] c"generated/home/dtcxzyw/WorkSpace/Projects/compilers/llvm-opt-benchmark/bench/darktable/darktable/src/libs/lib.c\00", align 1
@stderr = external global ptr, align 8
@.str.5 = private unnamed_addr constant [53 x i8] c"sqlite3 error: %s:%d, function %s(), query \22%s\22: %s\0A\00", align 1
@.str.6 = private unnamed_addr constant [41 x i8] c"sqlite3 error: %s:%d, function %s(): %s\0A\00", align 1
@__FUNCTION__.dt_lib_presets_update = private unnamed_addr constant [22 x i8] c"dt_lib_presets_update\00", align 1
@.str.14 = private unnamed_addr constant [123 x i8] c"UPDATE data.presets SET name = ?1, description = ?2, op_params = ?3 WHERE operation = ?4 AND op_version = ?5 AND name = ?6\00", align 1

; Function Attrs: nounwind uwtable
define void @dt_lib_presets_update(ptr noundef %0, ptr noundef %1, i32 noundef %2, ptr noundef %3, ptr noundef %4, ptr noundef %5, i32 noundef %6) #0 {
  %8 = alloca ptr, align 8
  %9 = alloca ptr, align 8
  %10 = alloca i32, align 4
  %11 = alloca ptr, align 8
  %12 = alloca ptr, align 8
  %13 = alloca ptr, align 8
  %14 = alloca i32, align 4
  %15 = alloca ptr, align 8
  %16 = alloca i32, align 4
  %17 = alloca i32, align 4
  %18 = alloca i32, align 4
  %19 = alloca i32, align 4
  %20 = alloca i32, align 4
  %21 = alloca i32, align 4
  %22 = alloca i32, align 4
  store ptr %0, ptr %8, align 8, !tbaa !63
  store ptr %1, ptr %9, align 8, !tbaa !63
  store i32 %2, ptr %10, align 4, !tbaa !62
  store ptr %3, ptr %11, align 8, !tbaa !63
  store ptr %4, ptr %12, align 8, !tbaa !63
  store ptr %5, ptr %13, align 8, !tbaa !76
  store i32 %6, ptr %14, align 4, !tbaa !62
  call void @llvm.lifetime.start.p0(i64 8, ptr %15) #12
  br label %23

23:                                               ; preds = %7
  br label %24

24:                                               ; preds = %23
  %25 = load i32, ptr getelementptr inbounds nuw (%struct.darktable_t, ptr @darktable, i32 0, i32 2), align 8, !tbaa !21
  %26 = and i32 256, %25
  %27 = icmp ne i32 %26, 0
  br i1 %27, label %28, label %34

28:                                               ; preds = %24
  %29 = load i32, ptr getelementptr inbounds nuw (%struct.darktable_t, ptr @darktable, i32 0, i32 2), align 8, !tbaa !21
  %30 = xor i32 %29, -1
  %31 = and i32 0, %30
  %32 = icmp ne i32 %31, 0
  br i1 %32, label %34, label %33

33:                                               ; preds = %28
  call void (ptr, ...) @dt_print_ext(ptr noundef @.str.2, ptr noundef @.str.3, i32 noundef 391, ptr noundef @__FUNCTION__.dt_lib_presets_update, ptr noundef @.str.14)
  br label %34

34:                                               ; preds = %33, %28, %24
  br label %35

35:                                               ; preds = %34
  br label %36

36:                                               ; preds = %35
  call void @llvm.lifetime.start.p0(i64 4, ptr %16) #12
  %37 = load ptr, ptr getelementptr inbounds nuw (%struct.darktable_t, ptr @darktable, i32 0, i32 18), align 8, !tbaa !68
  %38 = call ptr @dt_database_get(ptr noundef %37)
  %39 = call i32 @sqlite3_prepare_v2(ptr noundef %38, ptr noundef @.str.14, i32 noundef -1, ptr noundef %15, ptr noundef null)
  store i32 %39, ptr %16, align 4, !tbaa !62
  %40 = load i32, ptr %16, align 4, !tbaa !62
  %41 = icmp ne i32 %40, 0
  br i1 %41, label %42, label %48

42:                                               ; preds = %36
  %43 = load ptr, ptr @stderr, align 8, !tbaa !69
  %44 = load ptr, ptr getelementptr inbounds nuw (%struct.darktable_t, ptr @darktable, i32 0, i32 18), align 8, !tbaa !68
  %45 = call ptr @dt_database_get(ptr noundef %44)
  %46 = call ptr @sqlite3_errmsg(ptr noundef %45)
  %47 = call i32 (ptr, ptr, ...) @fprintf(ptr noundef %43, ptr noundef @.str.5, ptr noundef @.str.3, i32 noundef 391, ptr noundef @__FUNCTION__.dt_lib_presets_update, ptr noundef @.str.14, ptr noundef %46) #12
  br label %48

48:                                               ; preds = %42, %36
  call void @llvm.lifetime.end.p0(i64 4, ptr %16) #12
  br label %49

49:                                               ; preds = %48
  br label %50

50:                                               ; preds = %49
  call void @llvm.lifetime.start.p0(i64 4, ptr %17) #12
  %51 = load ptr, ptr %15, align 8, !tbaa !71
  %52 = load ptr, ptr %11, align 8, !tbaa !63
  %53 = call i32 @sqlite3_bind_text(ptr noundef %51, i32 noundef 1, ptr noundef %52, i32 noundef -1, ptr noundef inttoptr (i64 -1 to ptr))
  store i32 %53, ptr %17, align 4, !tbaa !62
  %54 = load i32, ptr %17, align 4, !tbaa !62
  %55 = icmp ne i32 %54, 0
  br i1 %55, label %56, label %62

56:                                               ; preds = %50
  %57 = load ptr, ptr @stderr, align 8, !tbaa !69
  %58 = load ptr, ptr getelementptr inbounds nuw (%struct.darktable_t, ptr @darktable, i32 0, i32 18), align 8, !tbaa !68
  %59 = call ptr @dt_database_get(ptr noundef %58)
  %60 = call ptr @sqlite3_errmsg(ptr noundef %59)
  %61 = call i32 (ptr, ptr, ...) @fprintf(ptr noundef %57, ptr noundef @.str.6, ptr noundef @.str.3, i32 noundef 393, ptr noundef @__FUNCTION__.dt_lib_presets_update, ptr noundef %60) #12
  br label %62

62:                                               ; preds = %56, %50
  call void @llvm.lifetime.end.p0(i64 4, ptr %17) #12
  call void @llvm.lifetime.start.p0(i64 4, ptr %18) #12
  %63 = load ptr, ptr %15, align 8, !tbaa !71
  %64 = load ptr, ptr %12, align 8, !tbaa !63
  %65 = call i32 @sqlite3_bind_text(ptr noundef %63, i32 noundef 2, ptr noundef %64, i32 noundef -1, ptr noundef inttoptr (i64 -1 to ptr))
  store i32 %65, ptr %18, align 4, !tbaa !62
  %66 = load i32, ptr %18, align 4, !tbaa !62
  %67 = icmp ne i32 %66, 0
  br i1 %67, label %68, label %74

68:                                               ; preds = %62
  %69 = load ptr, ptr @stderr, align 8, !tbaa !69
  %70 = load ptr, ptr getelementptr inbounds nuw (%struct.darktable_t, ptr @darktable, i32 0, i32 18), align 8, !tbaa !68
  %71 = call ptr @dt_database_get(ptr noundef %70)
  %72 = call ptr @sqlite3_errmsg(ptr noundef %71)
  %73 = call i32 (ptr, ptr, ...) @fprintf(ptr noundef %69, ptr noundef @.str.6, ptr noundef @.str.3, i32 noundef 394, ptr noundef @__FUNCTION__.dt_lib_presets_update, ptr noundef %72) #12
  br label %74

74:                                               ; preds = %68, %62
  call void @llvm.lifetime.end.p0(i64 4, ptr %18) #12
  call void @llvm.lifetime.start.p0(i64 4, ptr %19) #12
  %75 = load ptr, ptr %15, align 8, !tbaa !71
  %76 = load ptr, ptr %13, align 8, !tbaa !76
  %77 = load i32, ptr %14, align 4, !tbaa !62
  %78 = call i32 @sqlite3_bind_blob(ptr noundef %75, i32 noundef 3, ptr noundef %76, i32 noundef %77, ptr noundef inttoptr (i64 -1 to ptr))
  store i32 %78, ptr %19, align 4, !tbaa !62
  %79 = load i32, ptr %19, align 4, !tbaa !62
  %80 = icmp ne i32 %79, 0
  br i1 %80, label %81, label %87

81:                                               ; preds = %74
  %82 = load ptr, ptr @stderr, align 8, !tbaa !69
  %83 = load ptr, ptr getelementptr inbounds nuw (%struct.darktable_t, ptr @darktable, i32 0, i32 18), align 8, !tbaa !68
  %84 = call ptr @dt_database_get(ptr noundef %83)
  %85 = call ptr @sqlite3_errmsg(ptr noundef %84)
  %86 = call i32 (ptr, ptr, ...) @fprintf(ptr noundef %82, ptr noundef @.str.6, ptr noundef @.str.3, i32 noundef 395, ptr noundef @__FUNCTION__.dt_lib_presets_update, ptr noundef %85) #12
  br label %87

87:                                               ; preds = %81, %74
  call void @llvm.lifetime.end.p0(i64 4, ptr %19) #12
  call void @llvm.lifetime.start.p0(i64 4, ptr %20) #12
  %88 = load ptr, ptr %15, align 8, !tbaa !71
  %89 = load ptr, ptr %9, align 8, !tbaa !63
  %90 = call i32 @sqlite3_bind_text(ptr noundef %88, i32 noundef 4, ptr noundef %89, i32 noundef -1, ptr noundef inttoptr (i64 -1 to ptr))
  store i32 %90, ptr %20, align 4, !tbaa !62
  %91 = load i32, ptr %20, align 4, !tbaa !62
  %92 = icmp ne i32 %91, 0
  br i1 %92, label %93, label %99

93:                                               ; preds = %87
  %94 = load ptr, ptr @stderr, align 8, !tbaa !69
  %95 = load ptr, ptr getelementptr inbounds nuw (%struct.darktable_t, ptr @darktable, i32 0, i32 18), align 8, !tbaa !68
  %96 = call ptr @dt_database_get(ptr noundef %95)
  %97 = call ptr @sqlite3_errmsg(ptr noundef %96)
  %98 = call i32 (ptr, ptr, ...) @fprintf(ptr noundef %94, ptr noundef @.str.6, ptr noundef @.str.3, i32 noundef 396, ptr noundef @__FUNCTION__.dt_lib_presets_update, ptr noundef %97) #12
  br label %99

99:                                               ; preds = %93, %87
  call void @llvm.lifetime.end.p0(i64 4, ptr %20) #12
  call void @llvm.lifetime.start.p0(i64 4, ptr %21) #12
  %100 = load ptr, ptr %15, align 8, !tbaa !71
  %101 = load i32, ptr %10, align 4, !tbaa !62
  %102 = call i32 @sqlite3_bind_int(ptr noundef %100, i32 noundef 5, i32 noundef %101)
  store i32 %102, ptr %21, align 4, !tbaa !62
  %103 = load i32, ptr %21, align 4, !tbaa !62
  %104 = icmp ne i32 %103, 0
  br i1 %104, label %105, label %111

105:                                              ; preds = %99
  %106 = load ptr, ptr @stderr, align 8, !tbaa !69
  %107 = load ptr, ptr getelementptr inbounds nuw (%struct.darktable_t, ptr @darktable, i32 0, i32 18), align 8, !tbaa !68
  %108 = call ptr @dt_database_get(ptr noundef %107)
  %109 = call ptr @sqlite3_errmsg(ptr noundef %108)
  %110 = call i32 (ptr, ptr, ...) @fprintf(ptr noundef %106, ptr noundef @.str.6, ptr noundef @.str.3, i32 noundef 397, ptr noundef @__FUNCTION__.dt_lib_presets_update, ptr noundef %109) #12
  br label %111

111:                                              ; preds = %105, %99
  call void @llvm.lifetime.end.p0(i64 4, ptr %21) #12
  call void @llvm.lifetime.start.p0(i64 4, ptr %22) #12
  %112 = load ptr, ptr %15, align 8, !tbaa !71
  %113 = load ptr, ptr %8, align 8, !tbaa !63
  %114 = call i32 @sqlite3_bind_text(ptr noundef %112, i32 noundef 6, ptr noundef %113, i32 noundef -1, ptr noundef inttoptr (i64 -1 to ptr))
  store i32 %114, ptr %22, align 4, !tbaa !62
  %115 = load i32, ptr %22, align 4, !tbaa !62
  %116 = icmp ne i32 %115, 0
  br i1 %116, label %117, label %123

117:                                              ; preds = %111
  %118 = load ptr, ptr @stderr, align 8, !tbaa !69
  %119 = load ptr, ptr getelementptr inbounds nuw (%struct.darktable_t, ptr @darktable, i32 0, i32 18), align 8, !tbaa !68
  %120 = call ptr @dt_database_get(ptr noundef %119)
  %121 = call ptr @sqlite3_errmsg(ptr noundef %120)
  %122 = call i32 (ptr, ptr, ...) @fprintf(ptr noundef %118, ptr noundef @.str.6, ptr noundef @.str.3, i32 noundef 398, ptr noundef @__FUNCTION__.dt_lib_presets_update, ptr noundef %121) #12
  br label %123

123:                                              ; preds = %117, %111
  call void @llvm.lifetime.end.p0(i64 4, ptr %22) #12
  %124 = load ptr, ptr %15, align 8, !tbaa !71
  %125 = call i32 @sqlite3_step(ptr noundef %124)
  %126 = load ptr, ptr %15, align 8, !tbaa !71
  %127 = call i32 @sqlite3_finalize(ptr noundef %126)
  call void @llvm.lifetime.end.p0(i64 8, ptr %15) #12
  ret void
}