; Function Attrs: nounwind uwtable
define void @dt_lib_presets_update(ptr noundef %0, ptr noundef %1, i32 noundef %2, ptr noundef %3, ptr noundef %4, ptr noundef %5, i32 noundef %6) local_unnamed_addr #0 {
  %8 = alloca ptr, align 8
  call void @llvm.lifetime.start.p0(i64 8, ptr nonnull %8) #19
  %9 = load i32, ptr getelementptr inbounds nuw (i8, ptr @darktable, i64 8), align 8, !tbaa !59
  %10 = and i32 %9, 256
  %.not = icmp eq i32 %10, 0
  br i1 %.not, label %12, label %11

11:                                               ; preds = %7
  tail call void (ptr, ...) @dt_print_ext(ptr noundef nonnull @.str.2, ptr noundef nonnull @.str.3, i32 noundef 391, ptr noundef nonnull @__FUNCTION__.dt_lib_presets_update, ptr noundef nonnull @.str.14) #19
  br label %12

12:                                               ; preds = %11, %7
  %13 = load ptr, ptr getelementptr inbounds nuw (i8, ptr @darktable, i64 136), align 8, !tbaa !60
  %14 = tail call ptr @dt_database_get(ptr noundef %13) #19
  %15 = call i32 @sqlite3_prepare_v2(ptr noundef %14, ptr noundef nonnull @.str.14, i32 noundef -1, ptr noundef nonnull %8, ptr noundef null) #19
  %.not13 = icmp eq i32 %15, 0
  br i1 %.not13, label %22, label %16

16:                                               ; preds = %12
  %17 = load ptr, ptr @stderr, align 8, !tbaa !61
  %18 = load ptr, ptr getelementptr inbounds nuw (i8, ptr @darktable, i64 136), align 8, !tbaa !60
  %19 = call ptr @dt_database_get(ptr noundef %18) #19
  %20 = call ptr @sqlite3_errmsg(ptr noundef %19) #19
  %21 = call i32 (ptr, ptr, ...) @fprintf(ptr noundef %17, ptr noundef nonnull @.str.5, ptr noundef nonnull @.str.3, i32 noundef 391, ptr noundef nonnull @__FUNCTION__.dt_lib_presets_update, ptr noundef nonnull @.str.14, ptr noundef %20) #20
  br label %22

22:                                               ; preds = %16, %12
  %23 = load ptr, ptr %8, align 8, !tbaa !63
  %24 = call i32 @sqlite3_bind_text(ptr noundef %23, i32 noundef 1, ptr noundef %3, i32 noundef -1, ptr noundef nonnull inttoptr (i64 -1 to ptr)) #19
  %.not14 = icmp eq i32 %24, 0
  br i1 %.not14, label %31, label %25

25:                                               ; preds = %22
  %26 = load ptr, ptr @stderr, align 8, !tbaa !61
  %27 = load ptr, ptr getelementptr inbounds nuw (i8, ptr @darktable, i64 136), align 8, !tbaa !60
  %28 = call ptr @dt_database_get(ptr noundef %27) #19
  %29 = call ptr @sqlite3_errmsg(ptr noundef %28) #19
  %30 = call i32 (ptr, ptr, ...) @fprintf(ptr noundef %26, ptr noundef nonnull @.str.6, ptr noundef nonnull @.str.3, i32 noundef 393, ptr noundef nonnull @__FUNCTION__.dt_lib_presets_update, ptr noundef %29) #20
  br label %31

31:                                               ; preds = %25, %22
  %32 = load ptr, ptr %8, align 8, !tbaa !63
  %33 = call i32 @sqlite3_bind_text(ptr noundef %32, i32 noundef 2, ptr noundef %4, i32 noundef -1, ptr noundef nonnull inttoptr (i64 -1 to ptr)) #19
  %.not15 = icmp eq i32 %33, 0
  br i1 %.not15, label %40, label %34

34:                                               ; preds = %31
  %35 = load ptr, ptr @stderr, align 8, !tbaa !61
  %36 = load ptr, ptr getelementptr inbounds nuw (i8, ptr @darktable, i64 136), align 8, !tbaa !60
  %37 = call ptr @dt_database_get(ptr noundef %36) #19
  %38 = call ptr @sqlite3_errmsg(ptr noundef %37) #19
  %39 = call i32 (ptr, ptr, ...) @fprintf(ptr noundef %35, ptr noundef nonnull @.str.6, ptr noundef nonnull @.str.3, i32 noundef 394, ptr noundef nonnull @__FUNCTION__.dt_lib_presets_update, ptr noundef %38) #20
  br label %40

40:                                               ; preds = %34, %31
  %41 = load ptr, ptr %8, align 8, !tbaa !63
  %42 = call i32 @sqlite3_bind_blob(ptr noundef %41, i32 noundef 3, ptr noundef %5, i32 noundef %6, ptr noundef nonnull inttoptr (i64 -1 to ptr)) #19
  %.not16 = icmp eq i32 %42, 0
  br i1 %.not16, label %49, label %43

43:                                               ; preds = %40
  %44 = load ptr, ptr @stderr, align 8, !tbaa !61
  %45 = load ptr, ptr getelementptr inbounds nuw (i8, ptr @darktable, i64 136), align 8, !tbaa !60
  %46 = call ptr @dt_database_get(ptr noundef %45) #19
  %47 = call ptr @sqlite3_errmsg(ptr noundef %46) #19
  %48 = call i32 (ptr, ptr, ...) @fprintf(ptr noundef %44, ptr noundef nonnull @.str.6, ptr noundef nonnull @.str.3, i32 noundef 395, ptr noundef nonnull @__FUNCTION__.dt_lib_presets_update, ptr noundef %47) #20
  br label %49

49:                                               ; preds = %43, %40
  %50 = load ptr, ptr %8, align 8, !tbaa !63
  %51 = call i32 @sqlite3_bind_text(ptr noundef %50, i32 noundef 4, ptr noundef %1, i32 noundef -1, ptr noundef nonnull inttoptr (i64 -1 to ptr)) #19
  %.not17 = icmp eq i32 %51, 0
  br i1 %.not17, label %58, label %52

52:                                               ; preds = %49
  %53 = load ptr, ptr @stderr, align 8, !tbaa !61
  %54 = load ptr, ptr getelementptr inbounds nuw (i8, ptr @darktable, i64 136), align 8, !tbaa !60
  %55 = call ptr @dt_database_get(ptr noundef %54) #19
  %56 = call ptr @sqlite3_errmsg(ptr noundef %55) #19
  %57 = call i32 (ptr, ptr, ...) @fprintf(ptr noundef %53, ptr noundef nonnull @.str.6, ptr noundef nonnull @.str.3, i32 noundef 396, ptr noundef nonnull @__FUNCTION__.dt_lib_presets_update, ptr noundef %56) #20
  br label %58

58:                                               ; preds = %52, %49
  %59 = load ptr, ptr %8, align 8, !tbaa !63
  %60 = call i32 @sqlite3_bind_int(ptr noundef %59, i32 noundef 5, i32 noundef %2) #19
  %.not18 = icmp eq i32 %60, 0
  br i1 %.not18, label %67, label %61

61:                                               ; preds = %58
  %62 = load ptr, ptr @stderr, align 8, !tbaa !61
  %63 = load ptr, ptr getelementptr inbounds nuw (i8, ptr @darktable, i64 136), align 8, !tbaa !60
  %64 = call ptr @dt_database_get(ptr noundef %63) #19
  %65 = call ptr @sqlite3_errmsg(ptr noundef %64) #19
  %66 = call i32 (ptr, ptr, ...) @fprintf(ptr noundef %62, ptr noundef nonnull @.str.6, ptr noundef nonnull @.str.3, i32 noundef 397, ptr noundef nonnull @__FUNCTION__.dt_lib_presets_update, ptr noundef %65) #20
  br label %67

67:                                               ; preds = %61, %58
  %68 = load ptr, ptr %8, align 8, !tbaa !63
  %69 = call i32 @sqlite3_bind_text(ptr noundef %68, i32 noundef 6, ptr noundef %0, i32 noundef -1, ptr noundef nonnull inttoptr (i64 -1 to ptr)) #19
  %.not19 = icmp eq i32 %69, 0
  br i1 %.not19, label %76, label %70

70:                                               ; preds = %67
  %71 = load ptr, ptr @stderr, align 8, !tbaa !61
  %72 = load ptr, ptr getelementptr inbounds nuw (i8, ptr @darktable, i64 136), align 8, !tbaa !60
  %73 = call ptr @dt_database_get(ptr noundef %72) #19
  %74 = call ptr @sqlite3_errmsg(ptr noundef %73) #19
  %75 = call i32 (ptr, ptr, ...) @fprintf(ptr noundef %71, ptr noundef nonnull @.str.6, ptr noundef nonnull @.str.3, i32 noundef 398, ptr noundef nonnull @__FUNCTION__.dt_lib_presets_update, ptr noundef %74) #20
  br label %76

76:                                               ; preds = %70, %67
  %77 = load ptr, ptr %8, align 8, !tbaa !63
  %78 = call i32 @sqlite3_step(ptr noundef %77) #19
  %79 = load ptr, ptr %8, align 8, !tbaa !63
  %80 = call i32 @sqlite3_finalize(ptr noundef %79) #19
  call void @llvm.lifetime.end.p0(i64 8, ptr nonnull %8) #19
  ret void
}